target datalayout = "e-m:e-p270:32:32-p271:32:32-p272:64:64-i64:64-i128:128-f80:128-n8:16:32:64-S128"
target triple = "x86_64-pc-linux-gnu"

%struct.Aig_VSig_t_ = type { i32, [12 x i32] }

; Function Attrs: inlinehint nounwind uwtable
define internal i32 @Aig_RManCompareSigs(ptr noundef %0, ptr noundef %1, i32 noundef %2) #5 {
  %4 = alloca ptr, align 8
  %5 = alloca ptr, align 8
  %6 = alloca i32, align 4
  store ptr %0, ptr %4, align 8, !tbaa !54
  store ptr %1, ptr %5, align 8, !tbaa !54
  store i32 %2, ptr %6, align 4, !tbaa !25
  %7 = load ptr, ptr %4, align 8, !tbaa !54
  %8 = load ptr, ptr %5, align 8, !tbaa !54
  %9 = call i32 @memcmp(ptr noundef %7, ptr noundef %8, i64 noundef 4) #13
  ret i32 %9
}

; Function Attrs: nounwind uwtable
define i32 @Aig_RManVarsAreUnique(ptr noundef %0, i32 noundef %1) #0 {
  %3 = alloca i32, align 4
  %4 = alloca ptr, align 8
  %5 = alloca i32, align 4
  %6 = alloca i32, align 4
  %7 = alloca i32, align 4
  store ptr %0, ptr %4, align 8, !tbaa !54
  store i32 %1, ptr %5, align 4, !tbaa !25
  call void @llvm.lifetime.start.p0(i64 4, ptr %6) #10
  store i32 0, ptr %6, align 4, !tbaa !25
  br label %8

8:                                                ; preds = %30, %2
  %9 = load i32, ptr %6, align 4, !tbaa !25
  %10 = load i32, ptr %5, align 4, !tbaa !25
  %11 = sub nsw i32 %10, 1
  %12 = icmp slt i32 %9, %11
  br i1 %12, label %13, label %33

13:                                               ; preds = %8
  %14 = load ptr, ptr %4, align 8, !tbaa !54
  %15 = load i32, ptr %6, align 4, !tbaa !25
  %16 = mul nsw i32 2, %15
  %17 = sext i32 %16 to i64
  %18 = getelementptr inbounds %struct.Aig_VSig_t_, ptr %14, i64 %17
  %19 = load ptr, ptr %4, align 8, !tbaa !54
  %20 = load i32, ptr %6, align 4, !tbaa !25
  %21 = add nsw i32 %20, 1
  %22 = mul nsw i32 2, %21
  %23 = sext i32 %22 to i64
  %24 = getelementptr inbounds %struct.Aig_VSig_t_, ptr %19, i64 %23
  %25 = load i32, ptr %5, align 4, !tbaa !25
  %26 = call i32 @Aig_RManCompareSigs(ptr noundef %18, ptr noundef %24, i32 noundef %25)
  %27 = icmp eq i32 %26, 0
  br i1 %27, label %28, label %29

28:                                               ; preds = %13
  store i32 0, ptr %3, align 4
  store i32 1, ptr %7, align 4
  br label %34

29:                                               ; preds = %13
  br label %30

30:                                               ; preds = %29
  %31 = load i32, ptr %6, align 4, !tbaa !25
  %32 = add nsw i32 %31, 1
  store i32 %32, ptr %6, align 4, !tbaa !25
  br label %8, !llvm.loop !63

33:                                               ; preds = %8
  store i32 1, ptr %3, align 4
  store i32 1, ptr %7, align 4
  br label %34

34:                                               ; preds = %33, %28
  call void @llvm.lifetime.end.p0(i64 4, ptr %6) #10
  %35 = load i32, ptr %3, align 4
  ret i32 %35
}