; Function Attrs: nofree nounwind memory(argmem: read) uwtable
define range(i32 0, 2) i32 @Aig_RManVarsAreUnique(ptr noundef readonly captures(none) %0, i32 noundef %1) local_unnamed_addr #10 {
  %3 = tail call i32 @llvm.smax.i32(i32 %1, i32 1)
  %smax = add nsw i32 %3, -1
  %wide.trip.count = zext nneg i32 %smax to i64
  br label %4

4:                                                ; preds = %5, %2
  %indvars.iv = phi i64 [ %indvars.iv.next, %5 ], [ 0, %2 ]
  %exitcond.not = icmp eq i64 %indvars.iv, %wide.trip.count
  br i1 %exitcond.not, label %9, label %5

5:                                                ; preds = %4
  %.idx = mul nuw nsw i64 %indvars.iv, 104
  %6 = getelementptr inbounds nuw i8, ptr %0, i64 %.idx
  %indvars.iv.next = add nuw nsw i64 %indvars.iv, 1
  %.idx10 = mul nuw nsw i64 %indvars.iv.next, 104
  %7 = getelementptr inbounds nuw i8, ptr %0, i64 %.idx10
  %bcmp = tail call i32 @bcmp(ptr noundef nonnull dereferenceable(4) %6, ptr noundef nonnull dereferenceable(4) %7, i64 4)
  %8 = icmp eq i32 %bcmp, 0
  br i1 %8, label %9, label %4, !llvm.loop !54

9:                                                ; preds = %4, %5
  %.08 = phi i32 [ 0, %5 ], [ 1, %4 ]
  ret i32 %.08
}